; Function Attrs: mustprogress uwtable
define internal fastcc void @"_ZNO8pybind116detail15argument_loaderIJRKNS_6objectEEE4callINS_3strENS0_9void_typeERZ25test_submodule_gil_scopedRNS_7module_EE4$_15EENSt9enable_ifIXntsr3std7is_voidIT_EE5valueESE_E4typeEOT1_"(ptr dead_on_unwind noalias writable align 8 %0, ptr noundef nonnull align 8 dereferenceable(8) %1) unnamed_addr #1 align 2 personality ptr @__gxx_personality_v0 {
  %3 = alloca %"class.pybind11::gil_scoped_release", align 8
  %4 = alloca %"class.pybind11::gil_scoped_acquire", align 8
  call void @llvm.lifetime.start.p0(i64 16, ptr nonnull %3), !noalias !865
  call void @llvm.lifetime.start.p0(i64 16, ptr nonnull %4), !noalias !865
  %5 = getelementptr inbounds i8, ptr %3, i64 8
  store i8 0, ptr %5, align 8, !noalias !868
  %6 = getelementptr inbounds i8, ptr %3, i64 9
  store i8 1, ptr %6, align 1, !noalias !868
  %7 = tail call noundef nonnull align 8 dereferenceable(472) ptr @_ZN8pybind116detail13get_internalsEv(), !noalias !868
  %8 = tail call ptr @PyEval_SaveThread(), !noalias !868
  store ptr %8, ptr %3, align 8, !noalias !868
  invoke void @_ZN8pybind1118gil_scoped_acquireC2Ev(ptr noundef nonnull align 8 dereferenceable(10) %4)
          to label %9 unwind label %37, !noalias !868

9:                                                ; preds = %2
  invoke void @_ZN8pybind113strC2ERKNS_6objectE(ptr noundef nonnull align 8 dereferenceable(8) %0, ptr noundef nonnull align 8 dereferenceable(8) %1)
          to label %10 unwind label %39

10:                                               ; preds = %9
  %11 = load ptr, ptr %4, align 8, !noalias !868
  %12 = getelementptr inbounds i8, ptr %11, i64 160
  %13 = load i32, ptr %12, align 8
  %14 = add nsw i32 %13, -1
  store i32 %14, ptr %12, align 8
  %15 = icmp eq i32 %14, 0
  br i1 %15, label %16, label %_ZN8pybind1118gil_scoped_acquire7dec_refEv.exit.i.i.i

16:                                               ; preds = %10
  invoke void @PyThreadState_Clear(ptr noundef nonnull %11)
          to label %.noexc.i.i.i unwind label %30

.noexc.i.i.i:                                     ; preds = %16
  %17 = getelementptr inbounds i8, ptr %4, i64 9
  %18 = load i8, ptr %17, align 1, !noalias !868
  %19 = and i8 %18, 1
  %.not.i.i.i.i = icmp eq i8 %19, 0
  br i1 %.not.i.i.i.i, label %.noexc1.i.i.i, label %20

20:                                               ; preds = %.noexc.i.i.i
  invoke void @PyThreadState_DeleteCurrent()
          to label %.noexc1.i.i.i unwind label %30

.noexc1.i.i.i:                                    ; preds = %20, %.noexc.i.i.i
  %21 = invoke noundef nonnull align 8 dereferenceable(472) ptr @_ZN8pybind116detail13get_internalsEv() #25
          to label %.noexc2.i.i.i unwind label %30

.noexc2.i.i.i:                                    ; preds = %.noexc1.i.i.i
  %22 = getelementptr inbounds i8, ptr %21, i64 456
  %23 = load ptr, ptr %22, align 8
  %24 = invoke i32 @PyThread_tss_set(ptr noundef %23, ptr noundef null)
          to label %_ZN8pybind1118gil_scoped_acquire7dec_refEv.exit.thread.i.i.i unwind label %30

_ZN8pybind1118gil_scoped_acquire7dec_refEv.exit.thread.i.i.i: ; preds = %.noexc2.i.i.i
  %25 = getelementptr inbounds i8, ptr %4, i64 8
  store i8 0, ptr %25, align 8, !noalias !868
  br label %_ZN8pybind1118gil_scoped_acquireD2Ev.exit.i.i

_ZN8pybind1118gil_scoped_acquire7dec_refEv.exit.i.i.i: ; preds = %10
  %.phi.trans.insert.i.i.i = getelementptr inbounds i8, ptr %4, i64 8
  %.pre.i.i.i = load i8, ptr %.phi.trans.insert.i.i.i, align 8, !noalias !868
  %26 = and i8 %.pre.i.i.i, 1
  %27 = icmp eq i8 %26, 0
  br i1 %27, label %_ZN8pybind1118gil_scoped_acquireD2Ev.exit.i.i, label %28

28:                                               ; preds = %_ZN8pybind1118gil_scoped_acquire7dec_refEv.exit.i.i.i
  %29 = invoke ptr @PyEval_SaveThread()
          to label %_ZN8pybind1118gil_scoped_acquireD2Ev.exit.i.i unwind label %30

30:                                               ; preds = %28, %.noexc2.i.i.i, %.noexc1.i.i.i, %20, %16
  %31 = landingpad { ptr, i32 }
          catch ptr null
  %32 = extractvalue { ptr, i32 } %31, 0
  call void @__clang_call_terminate(ptr %32) #24
  unreachable

_ZN8pybind1118gil_scoped_acquireD2Ev.exit.i.i:    ; preds = %28, %_ZN8pybind1118gil_scoped_acquire7dec_refEv.exit.i.i.i, %_ZN8pybind1118gil_scoped_acquire7dec_refEv.exit.thread.i.i.i
  %.not.i.i.i = icmp eq ptr %8, null
  br i1 %.not.i.i.i, label %"_ZNO8pybind116detail15argument_loaderIJRKNS_6objectEEE9call_implINS_3strERZ25test_submodule_gil_scopedRNS_7module_EE4$_15JLm0EENS0_9void_typeEEET_OT0_St16integer_sequenceImJXspT1_EEEOT2_.exit", label %33

33:                                               ; preds = %_ZN8pybind1118gil_scoped_acquireD2Ev.exit.i.i
  invoke void @PyEval_RestoreThread(ptr noundef nonnull %8)
          to label %"_ZNO8pybind116detail15argument_loaderIJRKNS_6objectEEE9call_implINS_3strERZ25test_submodule_gil_scopedRNS_7module_EE4$_15JLm0EENS0_9void_typeEEET_OT0_St16integer_sequenceImJXspT1_EEEOT2_.exit" unwind label %34

34:                                               ; preds = %33
  %35 = landingpad { ptr, i32 }
          catch ptr null
  %36 = extractvalue { ptr, i32 } %35, 0
  call void @__clang_call_terminate(ptr %36) #24
  unreachable

37:                                               ; preds = %2
  %38 = landingpad { ptr, i32 }
          cleanup
  br label %41

39:                                               ; preds = %9
  %40 = landingpad { ptr, i32 }
          cleanup
  call void @_ZN8pybind1118gil_scoped_acquireD2Ev(ptr noundef nonnull align 8 dereferenceable(10) %4) #23
  br label %41

41:                                               ; preds = %39, %37
  %.pn.i.i = phi { ptr, i32 } [ %40, %39 ], [ %38, %37 ]
  call void @_ZN8pybind1118gil_scoped_releaseD2Ev(ptr noundef nonnull align 8 dereferenceable(10) %3) #23
  resume { ptr, i32 } %.pn.i.i

"_ZNO8pybind116detail15argument_loaderIJRKNS_6objectEEE9call_implINS_3strERZ25test_submodule_gil_scopedRNS_7module_EE4$_15JLm0EENS0_9void_typeEEET_OT0_St16integer_sequenceImJXspT1_EEEOT2_.exit": ; preds = %_ZN8pybind1118gil_scoped_acquireD2Ev.exit.i.i, %33
  call void @llvm.lifetime.end.p0(i64 16, ptr nonnull %3), !noalias !865
  call void @llvm.lifetime.end.p0(i64 16, ptr nonnull %4), !noalias !865
  ret void
}